; Function Attrs: nofree norecurse nosync nounwind memory(read, inaccessiblemem: none) uwtable
define range(i32 0, -2147483648) i32 @Nwk_ManGetFaninMax(ptr noundef readonly captures(none) %0) local_unnamed_addr #2 {
  %2 = getelementptr inbounds nuw i8, ptr %0, i64 32
  %3 = load ptr, ptr %2, align 8, !tbaa !15
  %4 = getelementptr i8, ptr %3, i64 4
  %.val = load i32, ptr %4, align 4, !tbaa !16
  %5 = icmp sgt i32 %.val, 0
  br i1 %5, label %.lr.ph, label %.critedge

.lr.ph:                                           ; preds = %1
  %6 = getelementptr i8, ptr %3, i64 8
  %.val12 = load ptr, ptr %6, align 8, !tbaa !18
  %wide.trip.count = zext nneg i32 %.val to i64
  br label %7

7:                                                ; preds = %.lr.ph, %16
  %indvars.iv = phi i64 [ 0, %.lr.ph ], [ %indvars.iv.next, %16 ]
  %.017 = phi i32 [ 0, %.lr.ph ], [ %.1, %16 ]
  %8 = getelementptr inbounds nuw ptr, ptr %.val12, i64 %indvars.iv
  %9 = load ptr, ptr %8, align 8, !tbaa !19
  %10 = icmp eq ptr %9, null
  br i1 %10, label %16, label %11

11:                                               ; preds = %7
  %12 = getelementptr i8, ptr %9, i64 32
  %.val13 = load i32, ptr %12, align 8
  %13 = and i32 %.val13, 7
  %.not = icmp eq i32 %13, 3
  br i1 %.not, label %14, label %16

14:                                               ; preds = %11
  %15 = getelementptr i8, ptr %9, i64 60
  %.val14 = load i32, ptr %15, align 4, !tbaa !28
  %spec.select = tail call i32 @llvm.smax.i32(i32 %.017, i32 %.val14)
  br label %16

16:                                               ; preds = %14, %11, %7
  %.1 = phi i32 [ %.017, %7 ], [ %.017, %11 ], [ %spec.select, %14 ]
  %indvars.iv.next = add nuw nsw i64 %indvars.iv, 1
  %exitcond.not = icmp eq i64 %indvars.iv.next, %wide.trip.count
  br i1 %exitcond.not, label %.critedge, label %7, !llvm.loop !29

.critedge:                                        ; preds = %16, %1
  %.0.lcssa = phi i32 [ 0, %1 ], [ %.1, %16 ]
  ret i32 %.0.lcssa
}